; Function Attrs: mustprogress ssp uwtable
define hidden noundef zeroext i1 @_ZN6open3d13visualization4glsl23CoordinateFrameRenderer6RenderERKNS0_12RenderOptionERKNS0_11ViewControlE(ptr noundef nonnull align 16 dereferenceable(368) %0, ptr noundef nonnull align 8 dereferenceable(497) %1, ptr noundef nonnull align 16 dereferenceable(728) %2) unnamed_addr #1 align 2 {
  %4 = getelementptr inbounds nuw i8, ptr %0, i64 24
  %5 = load i8, ptr %4, align 8, !tbaa !25, !range !31, !noundef !32
  %6 = trunc nuw i8 %5 to i1
  br i1 %6, label %7, label %21

7:                                                ; preds = %3
  %8 = getelementptr inbounds nuw i8, ptr %0, i64 8
  %9 = load ptr, ptr %8, align 8, !tbaa !33
  %10 = load ptr, ptr %9, align 8, !tbaa !4
  %11 = getelementptr inbounds nuw i8, ptr %10, i64 24
  %12 = load ptr, ptr %11, align 8
  %13 = tail call noundef zeroext i1 %12(ptr noundef nonnull align 8 dereferenceable(48) %9)
  %.not = xor i1 %13, true
  %14 = getelementptr inbounds nuw i8, ptr %1, i64 496
  %15 = load i8, ptr %14, align 8, !range !31
  %16 = trunc nuw i8 %15 to i1
  %or.cond = select i1 %.not, i1 %16, i1 false
  br i1 %or.cond, label %17, label %21

17:                                               ; preds = %7
  %18 = load ptr, ptr %8, align 8, !tbaa !33
  %19 = getelementptr inbounds nuw i8, ptr %0, i64 32
  %20 = tail call noundef zeroext i1 @_ZN6open3d13visualization4glsl13ShaderWrapper6RenderERKNS_8geometry8GeometryERKNS0_12RenderOptionERKNS0_11ViewControlE(ptr noundef nonnull align 8 dereferenceable(72) %19, ptr noundef nonnull align 8 dereferenceable(48) %18, ptr noundef nonnull align 8 dereferenceable(497) %1, ptr noundef nonnull align 16 dereferenceable(728) %2)
  br label %21

21:                                               ; preds = %3, %7, %17
  %.0 = phi i1 [ %20, %17 ], [ true, %7 ], [ true, %3 ]
  ret i1 %.0
}